target datalayout = "e-m:e-p270:32:32-p271:32:32-p272:64:64-i64:64-i128:128-f80:128-n8:16:32:64-S128"
target triple = "x86_64-pc-linux-gnu"

%struct._fvalue_t = type { ptr, %union.anon.1 }
%union.anon.1 = type { %struct._protocol_value_t }
%struct._protocol_value_t = type { ptr, i32, ptr, i8 }
%struct._GByteArray = type { ptr, i32 }

@.str.2 = private unnamed_addr constant [1 x i8] zeroinitializer, align 1

; Function Attrs: null_pointer_is_valid sspstrong uwtable
define internal void @value_free(ptr noundef %0) #0 {
  %2 = alloca ptr, align 8
  store ptr %0, ptr %2, align 8
  %3 = load ptr, ptr %2, align 8
  %4 = getelementptr inbounds nuw %struct._fvalue_t, ptr %3, i32 0, i32 1
  %5 = getelementptr inbounds nuw %struct._protocol_value_t, ptr %4, i32 0, i32 0
  %6 = load ptr, ptr %5, align 8
  %7 = icmp ne ptr %6, null
  br i1 %7, label %8, label %19

8:                                                ; preds = %1
  %9 = load ptr, ptr %2, align 8
  %10 = getelementptr inbounds nuw %struct._fvalue_t, ptr %9, i32 0, i32 1
  %11 = getelementptr inbounds nuw %struct._protocol_value_t, ptr %10, i32 0, i32 3
  %12 = load i8, ptr %11, align 8, !range !6, !noundef !7
  %13 = trunc i8 %12 to i1
  br i1 %13, label %14, label %19

14:                                               ; preds = %8
  %15 = load ptr, ptr %2, align 8
  %16 = getelementptr inbounds nuw %struct._fvalue_t, ptr %15, i32 0, i32 1
  %17 = getelementptr inbounds nuw %struct._protocol_value_t, ptr %16, i32 0, i32 0
  %18 = load ptr, ptr %17, align 8
  call void @tvb_free_chain(ptr noundef %18)
  br label %19

19:                                               ; preds = %14, %8, %1
  %20 = load ptr, ptr %2, align 8
  %21 = getelementptr inbounds nuw %struct._fvalue_t, ptr %20, i32 0, i32 1
  %22 = getelementptr inbounds nuw %struct._protocol_value_t, ptr %21, i32 0, i32 2
  %23 = load ptr, ptr %22, align 8
  call void @g_free(ptr noundef %23)
  ret void
}

; Function Attrs: null_pointer_is_valid sspstrong uwtable
define internal zeroext i1 @val_from_charconst(ptr noundef %0, i64 noundef %1, ptr noundef %2) #0 {
  %4 = alloca i1, align 1
  %5 = alloca ptr, align 8
  %6 = alloca i64, align 8
  %7 = alloca ptr, align 8
  %8 = alloca ptr, align 8
  %9 = alloca ptr, align 8
  %10 = alloca i32, align 4
  store ptr %0, ptr %5, align 8
  store i64 %1, ptr %6, align 8
  store ptr %2, ptr %7, align 8
  call void @llvm.lifetime.start.p0(i64 8, ptr %8) #9
  call void @llvm.lifetime.start.p0(i64 8, ptr %9) #9
  %11 = load ptr, ptr %5, align 8
  call void @value_free(ptr noundef %11)
  %12 = load ptr, ptr %5, align 8
  %13 = getelementptr inbounds nuw %struct._fvalue_t, ptr %12, i32 0, i32 1
  %14 = getelementptr inbounds nuw %struct._protocol_value_t, ptr %13, i32 0, i32 0
  store ptr null, ptr %14, align 8
  %15 = load ptr, ptr %5, align 8
  %16 = getelementptr inbounds nuw %struct._fvalue_t, ptr %15, i32 0, i32 1
  %17 = getelementptr inbounds nuw %struct._protocol_value_t, ptr %16, i32 0, i32 2
  store ptr null, ptr %17, align 8
  %18 = load ptr, ptr %5, align 8
  %19 = getelementptr inbounds nuw %struct._fvalue_t, ptr %18, i32 0, i32 1
  %20 = getelementptr inbounds nuw %struct._protocol_value_t, ptr %19, i32 0, i32 1
  store i32 -1, ptr %20, align 8
  %21 = load i64, ptr %6, align 8
  %22 = load ptr, ptr %7, align 8
  %23 = call ptr @byte_array_from_charconst(i64 noundef %21, ptr noundef %22)
  store ptr %23, ptr %8, align 8
  %24 = load ptr, ptr %8, align 8
  %25 = icmp ne ptr %24, null
  br i1 %25, label %26, label %51

26:                                               ; preds = %3
  %27 = load ptr, ptr %8, align 8
  %28 = getelementptr inbounds nuw %struct._GByteArray, ptr %27, i32 0, i32 0
  %29 = load ptr, ptr %28, align 8
  %30 = load ptr, ptr %8, align 8
  %31 = getelementptr inbounds nuw %struct._GByteArray, ptr %30, i32 0, i32 1
  %32 = load i32, ptr %31, align 8
  %33 = load ptr, ptr %8, align 8
  %34 = getelementptr inbounds nuw %struct._GByteArray, ptr %33, i32 0, i32 1
  %35 = load i32, ptr %34, align 8
  %36 = call ptr @tvb_new_real_data(ptr noundef %29, i32 noundef %32, i32 noundef %35)
  store ptr %36, ptr %9, align 8
  %37 = load ptr, ptr %9, align 8
  call void @tvb_set_free_cb(ptr noundef %37, ptr noundef @g_free)
  %38 = load ptr, ptr %8, align 8
  %39 = call ptr @g_byte_array_free(ptr noundef %38, i32 noundef 0)
  %40 = load ptr, ptr %5, align 8
  %41 = getelementptr inbounds nuw %struct._fvalue_t, ptr %40, i32 0, i32 1
  %42 = getelementptr inbounds nuw %struct._protocol_value_t, ptr %41, i32 0, i32 3
  store i8 1, ptr %42, align 8
  %43 = load ptr, ptr %9, align 8
  %44 = load ptr, ptr %5, align 8
  %45 = getelementptr inbounds nuw %struct._fvalue_t, ptr %44, i32 0, i32 1
  %46 = getelementptr inbounds nuw %struct._protocol_value_t, ptr %45, i32 0, i32 0
  store ptr %43, ptr %46, align 8
  %47 = call noalias ptr @g_strdup(ptr noundef @.str.2)
  %48 = load ptr, ptr %5, align 8
  %49 = getelementptr inbounds nuw %struct._fvalue_t, ptr %48, i32 0, i32 1
  %50 = getelementptr inbounds nuw %struct._protocol_value_t, ptr %49, i32 0, i32 2
  store ptr %47, ptr %50, align 8
  store i1 true, ptr %4, align 1
  store i32 1, ptr %10, align 4
  br label %52

51:                                               ; preds = %3
  store i1 false, ptr %4, align 1
  store i32 1, ptr %10, align 4
  br label %52

52:                                               ; preds = %51, %26
  call void @llvm.lifetime.end.p0(i64 8, ptr %9) #9
  call void @llvm.lifetime.end.p0(i64 8, ptr %8) #9
  %53 = load i1, ptr %4, align 1
  ret i1 %53
}