; Function Attrs: null_pointer_is_valid sspstrong uwtable
define internal noundef zeroext i1 @val_from_charconst(ptr noundef captures(none) initializes((16, 20)) %0, i64 noundef %1, ptr noundef %2) #0 {
  %4 = getelementptr inbounds nuw i8, ptr %0, i64 8
  %5 = load ptr, ptr %4, align 8
  %.not.i = icmp eq ptr %5, null
  br i1 %.not.i, label %value_free.exit, label %6

6:                                                ; preds = %3
  %7 = getelementptr inbounds nuw i8, ptr %0, i64 32
  %8 = load i8, ptr %7, align 8, !range !6, !noundef !7
  %9 = trunc nuw i8 %8 to i1
  br i1 %9, label %10, label %value_free.exit

10:                                               ; preds = %6
  tail call void @tvb_free_chain(ptr noundef nonnull %5)
  br label %value_free.exit

value_free.exit:                                  ; preds = %3, %6, %10
  %11 = getelementptr inbounds nuw i8, ptr %0, i64 24
  %12 = load ptr, ptr %11, align 8
  tail call void @g_free(ptr noundef %12)
  store ptr null, ptr %4, align 8
  store ptr null, ptr %11, align 8
  %13 = getelementptr inbounds nuw i8, ptr %0, i64 16
  store i32 -1, ptr %13, align 8
  %14 = tail call ptr @byte_array_from_charconst(i64 noundef %1, ptr noundef %2)
  %.not = icmp ne ptr %14, null
  br i1 %.not, label %15, label %23

15:                                               ; preds = %value_free.exit
  %16 = load ptr, ptr %14, align 8
  %17 = getelementptr inbounds nuw i8, ptr %14, i64 8
  %18 = load i32, ptr %17, align 8
  %19 = tail call ptr @tvb_new_real_data(ptr noundef %16, i32 noundef %18, i32 noundef %18)
  tail call void @tvb_set_free_cb(ptr noundef %19, ptr noundef nonnull @g_free)
  %20 = tail call ptr @g_byte_array_free(ptr noundef nonnull %14, i32 noundef 0)
  %21 = getelementptr inbounds nuw i8, ptr %0, i64 32
  store i8 1, ptr %21, align 8
  store ptr %19, ptr %4, align 8
  %22 = tail call noalias ptr @g_strdup(ptr noundef nonnull @.str.2)
  store ptr %22, ptr %11, align 8
  br label %23

23:                                               ; preds = %value_free.exit, %15
  ret i1 %.not
}